((S'title'
p0
S'EMERGE Impressions Day 3'
p1
tp2
(S'date'
p3
S'8.3.12'
p4
tp5
(S'keywords'
p6
S'emerge, futurism'
p7
tp8
(S'url'
p9
S'http://www.wealoneonearth.blogspot.com/2012/03/emerge-impressions-day-3.html'
p10
tp11
tp12
.