((S'title'
p0
S'The Affective Component-A John Carter Movie Review'
p1
tp2
(S'date'
p3
S'15.3.12'
p4
tp5
(S'keywords'
p6
S'john carter, movies, science fiction'
p7
tp8
(S'url'
p9
S'http://www.wealoneonearth.blogspot.com/2012/03/affective-component-john-carter-movie.html'
p10
tp11
tp12
.