((S'title'
p0
S'Science Fiction Prototyping: A Preliminary Assessment.'
p1
tp2
(S'date'
p3
S'12.3.12'
p4
tp5
(S'keywords'
p6
S'emerge, futurism, science fiction'
p7
tp8
(S'url'
p9
S'http://www.wealoneonearth.blogspot.com/2012/03/science-fiction-prototyping-preliminary.html'
p10
tp11
tp12
.