((S'title'
p0
S'What is Circuit Bending?'
p1
tp2
(S'date'
p3
S'30.5.07'
p4
tp5
(S'keywords'
p6
S'audio, media art, music'
p7
tp8
(S'url'
p9
S'http://www.wealoneonearth.blogspot.com/2007/05/what-is-circuit-bending.html'
p10
tp11
tp12
.