((S'title'
p0
S'variation on immersive video with one projector'
p1
tp2
(S'date'
p3
S'19.11.07'
p4
tp5
(S'keywords'
p6
S''
p7
tp8
(S'url'
p9
S'http://www.wealoneonearth.blogspot.com/2007/11/variation-on-immersive-video-with-one.html'
p10
tp11
tp12
.