((S'title'
p0
S'Hello? Is there anybody out there?'
p1
tp2
(S'date'
p3
S'18.2.10'
p4
tp5
(S'keywords'
p6
S''
p7
tp8
(S'url'
p9
S'http://www.wealoneonearth.blogspot.com/2010/02/hello-is-there-anybody-out-there.html'
p10
tp11
tp12
.