((S'title'
p0
S'Drop-Day 2010 Tech'
p1
tp2
(S'date'
p3
S'28.2.10'
p4
tp5
(S'keywords'
p6
S'Arduino, AVR, blinkylights, Caltech, Dabney, dropday, electronics, flicker induced hallucination, light, media art, monolith, octahedron, party, strobe'
p7
tp8
(S'url'
p9
S'http://www.wealoneonearth.blogspot.com/2010/02/i-figured-id-start-writing-this-up-on.html'
p10
tp11
tp12
.