((S'title'
p0
S'Untitled'
p1
tp2
(S'date'
p3
S'24.2.10'
p4
tp5
(S'keywords'
p6
S''
p7
tp8
(S'url'
p9
S'http://www.wealoneonearth.blogspot.com/2010/02/1-my-mind-is-full-of-information.html'
p10
tp11
tp12
.