((S'title'
p0
S'.. should be studying for finals'
p1
tp2
(S'date'
p3
S'11.5.08'
p4
tp5
(S'keywords'
p6
S''
p7
tp8
(S'url'
p9
S'http://www.wealoneonearth.blogspot.com/2008/05/should-be-studying-for-finals.html'
p10
tp11
tp12
.