((S'title'
p0
S'From Now On, We All Walk Through Walls'
p1
tp2
(S'date'
p3
S'14.8.12'
p4
tp5
(S'keywords'
p6
S''
p7
tp8
(S'url'
p9
S'http://www.wealoneonearth.blogspot.com/2012/08/from-now-on-we-all-walk-through-walls.html'
p10
tp11
tp12
.