((S'title'
p0
S'Science in the Media'
p1
tp2
(S'date'
p3
S'12.3.10'
p4
tp5
(S'keywords'
p6
S'science fiction'
p7
tp8
(S'url'
p9
S'http://www.wealoneonearth.blogspot.com/2010/03/science-in-media.html'
p10
tp11
tp12
.