((S'title'
p0
S'Bits of Intellectual Property'
p1
tp2
(S'date'
p3
S'1.3.10'
p4
tp5
(S'keywords'
p6
S''
p7
tp8
(S'url'
p9
S'http://www.wealoneonearth.blogspot.com/2010/03/bits-and-intellectual-property.html'
p10
tp11
tp12
.