((S'title'
p0
S'First We Take Manhattan'
p1
tp2
(S'date'
p3
S'3.6.10'
p4
tp5
(S'keywords'
p6
S''
p7
tp8
(S'url'
p9
S'http://www.wealoneonearth.blogspot.com/2010/06/first-we-take-manhattan.html'
p10
tp11
tp12
.