((S'title'
p0
S'Visionary Nanofutures IV: Fiction in the Laboratory'
p1
tp2
(S'date'
p3
S'17.12.09'
p4
tp5
(S'keywords'
p6
S'nanotechnology, science, science fiction, visionary nanofutures'
p7
tp8
(S'url'
p9
S'http://www.wealoneonearth.blogspot.com/2009/12/visionary-nanofutures-iv-fiction-in.html'
p10
tp11
tp12
.