((S'title'
p0
S'Research ethics in nanotechnology'
p1
tp2
(S'date'
p3
S'24.1.11'
p4
tp5
(S'keywords'
p6
S'ethics, nanotechnology, science'
p7
tp8
(S'url'
p9
S'http://www.wealoneonearth.blogspot.com/2011/01/nanotech-unethical.html'
p10
tp11
tp12
.