((S'title'
p0
S'Davos: Back to the Future'
p1
tp2
(S'date'
p3
S'25.1.11'
p4
tp5
(S'keywords'
p6
S''
p7
tp8
(S'url'
p9
S'http://www.wealoneonearth.blogspot.com/2011/01/davos-back-to-future.html'
p10
tp11
tp12
.