((S'title'
p0
S"Humanity's Quest for Immortality"
p1
tp2
(S'date'
p3
S'16.1.11'
p4
tp5
(S'keywords'
p6
S'book review, immortality, prevail, singularity, transhumanism'
p7
tp8
(S'url'
p9
S'http://www.wealoneonearth.blogspot.com/2011/01/humanitys-quest-for-immortality.html'
p10
tp11
tp12
.