((S'title'
p0
S'Collect Intelligence'
p1
tp2
(S'date'
p3
S'6.1.11'
p4
tp5
(S'keywords'
p6
S'consciousness, emergent effects, progress'
p7
tp8
(S'url'
p9
S'http://www.wealoneonearth.blogspot.com/2011/01/collect-intelligence.html'
p10
tp11
tp12
.