((S'title'
p0
S'The Rise and Decline of Military Human Enhancement'
p1
tp2
(S'date'
p3
S'19.1.11'
p4
tp5
(S'keywords'
p6
S'transhumanism, war'
p7
tp8
(S'url'
p9
S'http://www.wealoneonearth.blogspot.com/2011/01/rise-and-decline-of-military-human.html'
p10
tp11
tp12
.