((S'title'
p0
S'Risky Business'
p1
tp2
(S'date'
p3
S'4.4.11'
p4
tp5
(S'keywords'
p6
S'decoupling, Fukushima, gulf oil spill, normal accident, nuclear, prevail, risk'
p7
tp8
(S'url'
p9
S'http://www.wealoneonearth.blogspot.com/2011/04/risky-business.html'
p10
tp11
tp12
.