((S'title'
p0
S'Trust the Man in the White Lab Coat, He is Your Friend: or, Restoring Public Faith in Science'
p1
tp2
(S'date'
p3
S'23.4.11'
p4
tp5
(S'keywords'
p6
S'education, politics, reason, science, society, sts'
p7
tp8
(S'url'
p9
S'http://www.wealoneonearth.blogspot.com/2011/04/trust-man-in-white-lab-coat-he-is-your.html'
p10
tp11
tp12
.