((S'title'
p0
S'TODO : Equilibrium and Optimality in Regulation of Vice'
p1
tp2
(S'date'
p3
S'25.5.10'
p4
tp5
(S'keywords'
p6
S''
p7
tp8
(S'url'
p9
S'http://www.wealoneonearth.blogspot.com/2010/05/todo-equilibrium-and-optimality-in.html'
p10
tp11
tp12
.