((S'title'
p0
S'Do it Yourself : Trip Visor'
p1
tp2
(S'date'
p3
S'29.5.10'
p4
tp5
(S'keywords'
p6
S'Arduino, brain machine, do it yourself, electro-drugs, electronics, flicker, flicker induced hallucination, geometric, goggles, hallucination, patterns, projects, trippy'
p7
tp8
(S'url'
p9
S'http://www.wealoneonearth.blogspot.com/2010/05/do-it-yourself-trip-visor.html'
p10
tp11
tp12
.