((S'title'
p0
S'Untitled'
p1
tp2
(S'date'
p3
S'15.10.10'
p4
tp5
(S'keywords'
p6
S'animated, goggles, psychedelic, the goggles, trippy'
p7
tp8
(S'url'
p9
S'http://www.wealoneonearth.blogspot.com/2010/10/blog-post.html'
p10
tp11
tp12
.