((S'title'
p0
S'Untitled'
p1
tp2
(S'date'
p3
S'21.10.10'
p4
tp5
(S'keywords'
p6
S''
p7
tp8
(S'url'
p9
S'http://www.wealoneonearth.blogspot.com/2010/10/whether-one-views-lifetime-to-be-finite.html'
p10
tp11
tp12
.