((S'title'
p0
S'BIG UPS!'
p1
tp2
(S'date'
p3
S'5.10.10'
p4
tp5
(S'keywords'
p6
S'Big Ups, comics, culture, media art'
p7
tp8
(S'url'
p9
S'http://www.wealoneonearth.blogspot.com/2010/10/big-ups.html'
p10
tp11
tp12
.