((S'title'
p0
S'The Immortals'
p1
tp2
(S'date'
p3
S'19.10.10'
p4
tp5
(S'keywords'
p6
S'conversations, evolution, fiction, future, immortality, philosophy, science fiction'
p7
tp8
(S'url'
p9
S'http://www.wealoneonearth.blogspot.com/2010/10/immortals.html'
p10
tp11
tp12
.