((S'title'
p0
S'Is it happening already?'
p1
tp2
(S'date'
p3
S'20.10.10'
p4
tp5
(S'keywords'
p6
S'automation, liberal arts, robots, society'
p7
tp8
(S'url'
p9
S'http://www.wealoneonearth.blogspot.com/2010/10/is-it-happening-already-im-pretty.html'
p10
tp11
tp12
.