((S'title'
p0
S'Radiolab : Words'
p1
tp2
(S'date'
p3
S'4.2.12'
p4
tp5
(S'keywords'
p6
S'cognition, consciousness, language, neuroscience, psychology'
p7
tp8
(S'url'
p9
S'http://www.wealoneonearth.blogspot.com/2012/02/radiolab-words.html'
p10
tp11
tp12
.