((S'title'
p0
S"America's Science Decline - Neil deGrasse Tyson"
p1
tp2
(S'date'
p3
S'7.2.12'
p4
tp5
(S'keywords'
p6
S''
p7
tp8
(S'url'
p9
S'http://www.wealoneonearth.blogspot.com/2012/02/americas-science-decline-neil-degrasse.html'
p10
tp11
tp12
.