((S'title'
p0
S'Technological Citizenship'
p1
tp2
(S'date'
p3
S'25.3.11'
p4
tp5
(S'keywords'
p6
S'citizenship, hacks, heatsync, philosophy, politics, prevail, speculation, technology'
p7
tp8
(S'url'
p9
S'http://www.wealoneonearth.blogspot.com/2011/03/technological-citizenship.html'
p10
tp11
tp12
.