((S'title'
p0
S'Bits of Intellectual Property II'
p1
tp2
(S'date'
p3
S'31.3.11'
p4
tp5
(S'keywords'
p6
S'copyright, information theory'
p7
tp8
(S'url'
p9
S'http://www.wealoneonearth.blogspot.com/2011/03/bits-of-intellectual-property-ii.html'
p10
tp11
tp12
.