((S'title'
p0
S'Bayesian Hallucination ?'
p1
tp2
(S'date'
p3
S'8.12.10'
p4
tp5
(S'keywords'
p6
S'Bayesian, hallucination, math, nonsense, statistics'
p7
tp8
(S'url'
p9
S'http://www.wealoneonearth.blogspot.com/2010/12/bayesian-hallucination.html'
p10
tp11
tp12
.