((S'title'
p0
S'The Structure of Religion'
p1
tp2
(S'date'
p3
S'18.6.09'
p4
tp5
(S'keywords'
p6
S'religion'
p7
tp8
(S'url'
p9
S'http://www.wealoneonearth.blogspot.com/2009/06/structure-of-religion.html'
p10
tp11
tp12
.