((S'title'
p0
S'Diffusion Limited Aggregation is Pretty'
p1
tp2
(S'date'
p3
S'29.4.08'
p4
tp5
(S'keywords'
p6
S''
p7
tp8
(S'url'
p9
S'http://www.wealoneonearth.blogspot.com/2008/04/diffusion-limited-aggregation-is-pretty.html'
p10
tp11
tp12
.