((S'title'
p0
S'OpenCV : open-source computer vision'
p1
tp2
(S'date'
p3
S'18.7.07'
p4
tp5
(S'keywords'
p6
S'graphics, input, media art, vision'
p7
tp8
(S'url'
p9
S'http://www.wealoneonearth.blogspot.com/2007/07/opencv-is-open-source-library-from.html'
p10
tp11
tp12
.