((S'title'
p0
S'Conversation'
p1
tp2
(S'date'
p3
S'27.10.07'
p4
tp5
(S'keywords'
p6
S'consciousness, conversations'
p7
tp8
(S'url'
p9
S'http://www.wealoneonearth.blogspot.com/2007/10/conversation.html'
p10
tp11
tp12
.