((S'title'
p0
S'Untitled'
p1
tp2
(S'date'
p3
S'18.10.07'
p4
tp5
(S'keywords'
p6
S''
p7
tp8
(S'url'
p9
S'http://www.wealoneonearth.blogspot.com/2007/10/biff-and-i-have-been-playing-with.html'
p10
tp11
tp12
.