((S'title'
p0
S'The Vaccine Controvery'
p1
tp2
(S'date'
p3
S'21.11.11'
p4
tp5
(S'keywords'
p6
S'mark largent, politics, science, vaccines'
p7
tp8
(S'url'
p9
S'http://www.wealoneonearth.blogspot.com/2011/11/vaccine-controvery.html'
p10
tp11
tp12
.